PS C:\Users\ashwi\Desktop\volatility3> python vol.py -f "Satan_2021.raw" windows.malfind
Volatility 3 Framework 2.26.2
C:\Users\ashwi\Desktop\volatility3\volatility3\framework\deprecation.py:105: FutureWarning: This plugin (PluginRequirement) has been renamed and will be removed in the first release after 2026-06-01. PluginRequirement is to be deprecated. Use VersionRequirement instead.
  warnings.warn(
Progress:  100.00               PDB scanning finished
PID     Process Start VPN       End VPN Tag     Protection      CommitCharge    PrivateMemory   File output     Notes
        Hexdump Disasm

3148    AgentService.e  0x1859c370000   0x1859c37ffff   VadS    PAGE_EXECUTE_READWRITE  16      1       Disabled
        N/A
00 00 00 00 00 00 00 00 00 00 00 00 00 00 00 00 ................
00 00 00 00 00 00 00 00 00 00 00 00 00 00 00 00 ................
f0 ff 00 00 00 00 00 00 00 00 00 00 00 00 00 00 ................
00 00 00 00 00 00 00 00 00 00 00 00 00 00 00 00 ................
0x1859c370000:  add     byte ptr [rax], al
0x1859c370002:  add     byte ptr [rax], al
0x1859c370004:  add     byte ptr [rax], al
0x1859c370006:  add     byte ptr [rax], al
0x1859c370008:  add     byte ptr [rax], al
0x1859c37000a:  add     byte ptr [rax], al
0x1859c37000c:  add     byte ptr [rax], al
0x1859c37000e:  add     byte ptr [rax], al
0x1859c370010:  add     byte ptr [rax], al
0x1859c370012:  add     byte ptr [rax], al
0x1859c370014:  add     byte ptr [rax], al
0x1859c370016:  add     byte ptr [rax], al
0x1859c370018:  add     byte ptr [rax], al
0x1859c37001a:  add     byte ptr [rax], al
0x1859c37001c:  add     byte ptr [rax], al
0x1859c37001e:  add     byte ptr [rax], al
0x1859c370020:  lock inc        dword ptr [rax]
0x1859c370023:  add     byte ptr [rax], al
0x1859c370025:  add     byte ptr [rax], al
0x1859c370027:  add     byte ptr [rax], al
0x1859c370029:  add     byte ptr [rax], al
0x1859c37002b:  add     byte ptr [rax], al
0x1859c37002d:  add     byte ptr [rax], al
0x1859c37002f:  add     byte ptr [rax], al
0x1859c370031:  add     byte ptr [rax], al
0x1859c370033:  add     byte ptr [rax], al
0x1859c370035:  add     byte ptr [rax], al
0x1859c370037:  add     byte ptr [rax], al
0x1859c370039:  add     byte ptr [rax], al
0x1859c37003b:  add     byte ptr [rax], al
0x1859c37003d:  add     byte ptr [rax], al
3164    SchedulerServi  0x1d0472a0000   0x1d0472affff   VadS    PAGE_EXECUTE_READWRITE  16      1       Disabled
        N/A
00 00 00 00 00 00 00 00 00 00 00 00 00 00 00 00 ................
00 00 00 00 00 00 00 00 00 00 00 00 00 00 00 00 ................
f0 ff 00 00 00 00 00 00 00 00 00 00 00 00 00 00 ................
00 00 00 00 00 00 00 00 00 00 00 00 00 00 00 00 ................
0x1d0472a0000:  add     byte ptr [rax], al
0x1d0472a0002:  add     byte ptr [rax], al
0x1d0472a0004:  add     byte ptr [rax], al
0x1d0472a0006:  add     byte ptr [rax], al
0x1d0472a0008:  add     byte ptr [rax], al
0x1d0472a000a:  add     byte ptr [rax], al
0x1d0472a000c:  add     byte ptr [rax], al
0x1d0472a000e:  add     byte ptr [rax], al
0x1d0472a0010:  add     byte ptr [rax], al
0x1d0472a0012:  add     byte ptr [rax], al
0x1d0472a0014:  add     byte ptr [rax], al
0x1d0472a0016:  add     byte ptr [rax], al
0x1d0472a0018:  add     byte ptr [rax], al
0x1d0472a001a:  add     byte ptr [rax], al
0x1d0472a001c:  add     byte ptr [rax], al
0x1d0472a001e:  add     byte ptr [rax], al
0x1d0472a0020:  lock inc        dword ptr [rax]
0x1d0472a0023:  add     byte ptr [rax], al
0x1d0472a0025:  add     byte ptr [rax], al
0x1d0472a0027:  add     byte ptr [rax], al
0x1d0472a0029:  add     byte ptr [rax], al
0x1d0472a002b:  add     byte ptr [rax], al
0x1d0472a002d:  add     byte ptr [rax], al
0x1d0472a002f:  add     byte ptr [rax], al
0x1d0472a0031:  add     byte ptr [rax], al
0x1d0472a0033:  add     byte ptr [rax], al
0x1d0472a0035:  add     byte ptr [rax], al
0x1d0472a0037:  add     byte ptr [rax], al
0x1d0472a0039:  add     byte ptr [rax], al
0x1d0472a003b:  add     byte ptr [rax], al
0x1d0472a003d:  add     byte ptr [rax], al
3268    MsMpEng.exe     0x22842bf0000   0x22842bf0fff   VadS    PAGE_EXECUTE_READWRITE  1       1       Disabled
        Function prologue
55 48 8d 2c 24 48 83 ec 20 48 8b 01 48 8b 49 08 UH.,$H.. H..H.I.
ff d0 48 8d 65 00 5d c3 cc cc cc cc cc cc cc cc ..H.e.].........
cc cc cc cc cc cc cc cc cc cc cc cc cc cc cc cc ................
cc cc cc cc cc cc cc cc cc cc cc cc cc cc cc cc ................
0x22842bf0000:  push    rbp
0x22842bf0001:  lea     rbp, [rsp]
0x22842bf0005:  sub     rsp, 0x20
0x22842bf0009:  mov     rax, qword ptr [rcx]
0x22842bf000c:  mov     rcx, qword ptr [rcx + 8]
0x22842bf0010:  call    rax
0x22842bf0012:  lea     rsp, [rbp]
0x22842bf0016:  pop     rbp
0x22842bf0017:  ret
0x22842bf0018:  int3
0x22842bf0019:  int3
0x22842bf001a:  int3
0x22842bf001b:  int3
0x22842bf001c:  int3
0x22842bf001d:  int3
0x22842bf001e:  int3
0x22842bf001f:  int3
0x22842bf0020:  int3
0x22842bf0021:  int3
0x22842bf0022:  int3
0x22842bf0023:  int3
0x22842bf0024:  int3
0x22842bf0025:  int3
0x22842bf0026:  int3
0x22842bf0027:  int3
0x22842bf0028:  int3
0x22842bf0029:  int3
0x22842bf002a:  int3
0x22842bf002b:  int3
0x22842bf002c:  int3
0x22842bf002d:  int3
0x22842bf002e:  int3
0x22842bf002f:  int3
0x22842bf0030:  int3
0x22842bf0031:  int3
0x22842bf0032:  int3
0x22842bf0033:  int3
0x22842bf0034:  int3
0x22842bf0035:  int3
0x22842bf0036:  int3
0x22842bf0037:  int3
0x22842bf0038:  int3
0x22842bf0039:  int3
0x22842bf003a:  int3
0x22842bf003b:  int3
0x22842bf003c:  int3
0x22842bf003d:  int3
0x22842bf003e:  int3
0x22842bf003f:  int3
3268    MsMpEng.exe     0x22842c00000   0x22842c00fff   VadS    PAGE_EXECUTE_READWRITE  1       1       Disabled
        Function prologue
55 48 8d 2c 24 48 83 ec 20 48 8b 01 48 8b 49 08 UH.,$H.. H..H.I.
ff d0 48 8d 65 00 5d c3 cc cc cc cc cc cc cc cc ..H.e.].........
cc cc cc cc cc cc cc cc cc cc cc cc cc cc cc cc ................
cc cc cc cc cc cc cc cc cc cc cc cc cc cc cc cc ................
0x22842c00000:  push    rbp
0x22842c00001:  lea     rbp, [rsp]
0x22842c00005:  sub     rsp, 0x20
0x22842c00009:  mov     rax, qword ptr [rcx]
0x22842c0000c:  mov     rcx, qword ptr [rcx + 8]
0x22842c00010:  call    rax
0x22842c00012:  lea     rsp, [rbp]
0x22842c00016:  pop     rbp
0x22842c00017:  ret
0x22842c00018:  int3
0x22842c00019:  int3
0x22842c0001a:  int3
0x22842c0001b:  int3
0x22842c0001c:  int3
0x22842c0001d:  int3
0x22842c0001e:  int3
0x22842c0001f:  int3
0x22842c00020:  int3
0x22842c00021:  int3
0x22842c00022:  int3
0x22842c00023:  int3
0x22842c00024:  int3
0x22842c00025:  int3
0x22842c00026:  int3
0x22842c00027:  int3
0x22842c00028:  int3
0x22842c00029:  int3
0x22842c0002a:  int3
0x22842c0002b:  int3
0x22842c0002c:  int3
0x22842c0002d:  int3
0x22842c0002e:  int3
0x22842c0002f:  int3
0x22842c00030:  int3
0x22842c00031:  int3
0x22842c00032:  int3
0x22842c00033:  int3
0x22842c00034:  int3
0x22842c00035:  int3
0x22842c00036:  int3
0x22842c00037:  int3
0x22842c00038:  int3
0x22842c00039:  int3
0x22842c0003a:  int3
0x22842c0003b:  int3
0x22842c0003c:  int3
0x22842c0003d:  int3
0x22842c0003e:  int3
0x22842c0003f:  int3
3268    MsMpEng.exe     0x22842c30000   0x22842c31fff   VadS    PAGE_EXECUTE_READWRITE  2       1       Disabled
        Function prologue
55 48 8d 2c 24 48 83 ec 20 48 8b 01 48 8b 49 08 UH.,$H.. H..H.I.
ff d0 48 8d 65 00 5d c3 cc cc cc cc cc cc cc cc ..H.e.].........
cc cc cc cc cc cc cc cc cc cc cc cc cc cc cc cc ................
cc cc cc cc cc cc cc cc cc cc cc cc cc cc cc cc ................
0x22842c30000:  push    rbp
0x22842c30001:  lea     rbp, [rsp]
0x22842c30005:  sub     rsp, 0x20
0x22842c30009:  mov     rax, qword ptr [rcx]
0x22842c3000c:  mov     rcx, qword ptr [rcx + 8]
0x22842c30010:  call    rax
0x22842c30012:  lea     rsp, [rbp]
0x22842c30016:  pop     rbp
0x22842c30017:  ret
0x22842c30018:  int3
0x22842c30019:  int3
0x22842c3001a:  int3
0x22842c3001b:  int3
0x22842c3001c:  int3
0x22842c3001d:  int3
0x22842c3001e:  int3
0x22842c3001f:  int3
0x22842c30020:  int3
0x22842c30021:  int3
0x22842c30022:  int3
0x22842c30023:  int3
0x22842c30024:  int3
0x22842c30025:  int3
0x22842c30026:  int3
0x22842c30027:  int3
0x22842c30028:  int3
0x22842c30029:  int3
0x22842c3002a:  int3
0x22842c3002b:  int3
0x22842c3002c:  int3
0x22842c3002d:  int3
0x22842c3002e:  int3
0x22842c3002f:  int3
0x22842c30030:  int3
0x22842c30031:  int3
0x22842c30032:  int3
0x22842c30033:  int3
0x22842c30034:  int3
0x22842c30035:  int3
0x22842c30036:  int3
0x22842c30037:  int3
0x22842c30038:  int3
0x22842c30039:  int3
0x22842c3003a:  int3
0x22842c3003b:  int3
0x22842c3003c:  int3
0x22842c3003d:  int3
0x22842c3003e:  int3
0x22842c3003f:  int3
3268    MsMpEng.exe     0x22842ce0000   0x22842ce0fff   VadS    PAGE_EXECUTE_READWRITE  1       1       Disabled
        Function prologue
55 48 8d 2c 24 48 83 ec 20 48 8b 01 48 8b 49 08 UH.,$H.. H..H.I.
ff d0 48 8d 65 00 5d c3 cc cc cc cc cc cc cc cc ..H.e.].........
cc cc cc cc cc cc cc cc cc cc cc cc cc cc cc cc ................
cc cc cc cc cc cc cc cc cc cc cc cc cc cc cc cc ................
0x22842ce0000:  push    rbp
0x22842ce0001:  lea     rbp, [rsp]
0x22842ce0005:  sub     rsp, 0x20
0x22842ce0009:  mov     rax, qword ptr [rcx]
0x22842ce000c:  mov     rcx, qword ptr [rcx + 8]
0x22842ce0010:  call    rax
0x22842ce0012:  lea     rsp, [rbp]
0x22842ce0016:  pop     rbp
0x22842ce0017:  ret
0x22842ce0018:  int3
0x22842ce0019:  int3
0x22842ce001a:  int3
0x22842ce001b:  int3
0x22842ce001c:  int3
0x22842ce001d:  int3
0x22842ce001e:  int3
0x22842ce001f:  int3
0x22842ce0020:  int3
0x22842ce0021:  int3
0x22842ce0022:  int3
0x22842ce0023:  int3
0x22842ce0024:  int3
0x22842ce0025:  int3
0x22842ce0026:  int3
0x22842ce0027:  int3
0x22842ce0028:  int3
0x22842ce0029:  int3
0x22842ce002a:  int3
0x22842ce002b:  int3
0x22842ce002c:  int3
0x22842ce002d:  int3
0x22842ce002e:  int3
0x22842ce002f:  int3
0x22842ce0030:  int3
0x22842ce0031:  int3
0x22842ce0032:  int3
0x22842ce0033:  int3
0x22842ce0034:  int3
0x22842ce0035:  int3
0x22842ce0036:  int3
0x22842ce0037:  int3
0x22842ce0038:  int3
0x22842ce0039:  int3
0x22842ce003a:  int3
0x22842ce003b:  int3
0x22842ce003c:  int3
0x22842ce003d:  int3
0x22842ce003e:  int3
0x22842ce003f:  int3
3268    MsMpEng.exe     0x22842cd0000   0x22842cd2fff   VadS    PAGE_EXECUTE_READWRITE  3       1       Disabled
        Function prologue
55 48 8d 2c 24 48 83 ec 20 48 8b 01 48 8b 49 08 UH.,$H.. H..H.I.
ff d0 48 8d 65 00 5d c3 cc cc cc cc cc cc cc cc ..H.e.].........
cc cc cc cc cc cc cc cc cc cc cc cc cc cc cc cc ................
cc cc cc cc cc cc cc cc cc cc cc cc cc cc cc cc ................
0x22842cd0000:  push    rbp
0x22842cd0001:  lea     rbp, [rsp]
0x22842cd0005:  sub     rsp, 0x20
0x22842cd0009:  mov     rax, qword ptr [rcx]
0x22842cd000c:  mov     rcx, qword ptr [rcx + 8]
0x22842cd0010:  call    rax
0x22842cd0012:  lea     rsp, [rbp]
0x22842cd0016:  pop     rbp
0x22842cd0017:  ret
0x22842cd0018:  int3
0x22842cd0019:  int3
0x22842cd001a:  int3
0x22842cd001b:  int3
0x22842cd001c:  int3
0x22842cd001d:  int3
0x22842cd001e:  int3
0x22842cd001f:  int3
0x22842cd0020:  int3
0x22842cd0021:  int3
0x22842cd0022:  int3
0x22842cd0023:  int3
0x22842cd0024:  int3
0x22842cd0025:  int3
0x22842cd0026:  int3
0x22842cd0027:  int3
0x22842cd0028:  int3
0x22842cd0029:  int3
0x22842cd002a:  int3
0x22842cd002b:  int3
0x22842cd002c:  int3
0x22842cd002d:  int3
0x22842cd002e:  int3
0x22842cd002f:  int3
0x22842cd0030:  int3
0x22842cd0031:  int3
0x22842cd0032:  int3
0x22842cd0033:  int3
0x22842cd0034:  int3
0x22842cd0035:  int3
0x22842cd0036:  int3
0x22842cd0037:  int3
0x22842cd0038:  int3
0x22842cd0039:  int3
0x22842cd003a:  int3
0x22842cd003b:  int3
0x22842cd003c:  int3
0x22842cd003d:  int3
0x22842cd003e:  int3
0x22842cd003f:  int3
3268    MsMpEng.exe     0x22842dc0000   0x22842dc1fff   VadS    PAGE_EXECUTE_READWRITE  2       1       Disabled
        Function prologue
55 48 8d 2c 24 48 83 ec 20 48 8b 01 48 8b 49 08 UH.,$H.. H..H.I.
ff d0 48 8d 65 00 5d c3 cc cc cc cc cc cc cc cc ..H.e.].........
cc cc cc cc cc cc cc cc cc cc cc cc cc cc cc cc ................
cc cc cc cc cc cc cc cc cc cc cc cc cc cc cc cc ................
0x22842dc0000:  push    rbp
0x22842dc0001:  lea     rbp, [rsp]
0x22842dc0005:  sub     rsp, 0x20
0x22842dc0009:  mov     rax, qword ptr [rcx]
0x22842dc000c:  mov     rcx, qword ptr [rcx + 8]
0x22842dc0010:  call    rax
0x22842dc0012:  lea     rsp, [rbp]
0x22842dc0016:  pop     rbp
0x22842dc0017:  ret
0x22842dc0018:  int3
0x22842dc0019:  int3
0x22842dc001a:  int3
0x22842dc001b:  int3
0x22842dc001c:  int3
0x22842dc001d:  int3
0x22842dc001e:  int3
0x22842dc001f:  int3
0x22842dc0020:  int3
0x22842dc0021:  int3
0x22842dc0022:  int3
0x22842dc0023:  int3
0x22842dc0024:  int3
0x22842dc0025:  int3
0x22842dc0026:  int3
0x22842dc0027:  int3
0x22842dc0028:  int3
0x22842dc0029:  int3
0x22842dc002a:  int3
0x22842dc002b:  int3
0x22842dc002c:  int3
0x22842dc002d:  int3
0x22842dc002e:  int3
0x22842dc002f:  int3
0x22842dc0030:  int3
0x22842dc0031:  int3
0x22842dc0032:  int3
0x22842dc0033:  int3
0x22842dc0034:  int3
0x22842dc0035:  int3
0x22842dc0036:  int3
0x22842dc0037:  int3
0x22842dc0038:  int3
0x22842dc0039:  int3
0x22842dc003a:  int3
0x22842dc003b:  int3
0x22842dc003c:  int3
0x22842dc003d:  int3
0x22842dc003e:  int3
0x22842dc003f:  int3
3268    MsMpEng.exe     0x22842e60000   0x22842e60fff   VadS    PAGE_EXECUTE_READWRITE  1       1       Disabled
        Function prologue
55 48 8d 2c 24 48 83 ec 20 48 8b 01 48 8b 49 08 UH.,$H.. H..H.I.
ff d0 48 8d 65 00 5d c3 cc cc cc cc cc cc cc cc ..H.e.].........
cc cc cc cc cc cc cc cc cc cc cc cc cc cc cc cc ................
cc cc cc cc cc cc cc cc cc cc cc cc cc cc cc cc ................
0x22842e60000:  push    rbp
0x22842e60001:  lea     rbp, [rsp]
0x22842e60005:  sub     rsp, 0x20
0x22842e60009:  mov     rax, qword ptr [rcx]
0x22842e6000c:  mov     rcx, qword ptr [rcx + 8]
0x22842e60010:  call    rax
0x22842e60012:  lea     rsp, [rbp]
0x22842e60016:  pop     rbp
0x22842e60017:  ret
0x22842e60018:  int3
0x22842e60019:  int3
0x22842e6001a:  int3
0x22842e6001b:  int3
0x22842e6001c:  int3
0x22842e6001d:  int3
0x22842e6001e:  int3
0x22842e6001f:  int3
0x22842e60020:  int3
0x22842e60021:  int3
0x22842e60022:  int3
0x22842e60023:  int3
0x22842e60024:  int3
0x22842e60025:  int3
0x22842e60026:  int3
0x22842e60027:  int3
0x22842e60028:  int3
0x22842e60029:  int3
0x22842e6002a:  int3
0x22842e6002b:  int3
0x22842e6002c:  int3
0x22842e6002d:  int3
0x22842e6002e:  int3
0x22842e6002f:  int3
0x22842e60030:  int3
0x22842e60031:  int3
0x22842e60032:  int3
0x22842e60033:  int3
0x22842e60034:  int3
0x22842e60035:  int3
0x22842e60036:  int3
0x22842e60037:  int3
0x22842e60038:  int3
0x22842e60039:  int3
0x22842e6003a:  int3
0x22842e6003b:  int3
0x22842e6003c:  int3
0x22842e6003d:  int3
0x22842e6003e:  int3
0x22842e6003f:  int3
3268    MsMpEng.exe     0x22842ea0000   0x22842eabfff   VadS    PAGE_EXECUTE_READWRITE  12      1       Disabled
        Function prologue
55 48 8d 2c 24 48 83 ec 20 48 8b 01 48 8b 49 08 UH.,$H.. H..H.I.
ff d0 48 8d 65 00 5d c3 cc cc cc cc cc cc cc cc ..H.e.].........
cc cc cc cc cc cc cc cc cc cc cc cc cc cc cc cc ................
cc cc cc cc cc cc cc cc cc cc cc cc cc cc cc cc ................
0x22842ea0000:  push    rbp
0x22842ea0001:  lea     rbp, [rsp]
0x22842ea0005:  sub     rsp, 0x20
0x22842ea0009:  mov     rax, qword ptr [rcx]
0x22842ea000c:  mov     rcx, qword ptr [rcx + 8]
0x22842ea0010:  call    rax
0x22842ea0012:  lea     rsp, [rbp]
0x22842ea0016:  pop     rbp
0x22842ea0017:  ret
0x22842ea0018:  int3
0x22842ea0019:  int3
0x22842ea001a:  int3
0x22842ea001b:  int3
0x22842ea001c:  int3
0x22842ea001d:  int3
0x22842ea001e:  int3
0x22842ea001f:  int3
0x22842ea0020:  int3
0x22842ea0021:  int3
0x22842ea0022:  int3
0x22842ea0023:  int3
0x22842ea0024:  int3
0x22842ea0025:  int3
0x22842ea0026:  int3
0x22842ea0027:  int3
0x22842ea0028:  int3
0x22842ea0029:  int3
0x22842ea002a:  int3
0x22842ea002b:  int3
0x22842ea002c:  int3
0x22842ea002d:  int3
0x22842ea002e:  int3
0x22842ea002f:  int3
0x22842ea0030:  int3
0x22842ea0031:  int3
0x22842ea0032:  int3
0x22842ea0033:  int3
0x22842ea0034:  int3
0x22842ea0035:  int3
0x22842ea0036:  int3
0x22842ea0037:  int3
0x22842ea0038:  int3
0x22842ea0039:  int3
0x22842ea003a:  int3
0x22842ea003b:  int3
0x22842ea003c:  int3
0x22842ea003d:  int3
0x22842ea003e:  int3
0x22842ea003f:  int3
3268    MsMpEng.exe     0x22843c00000   0x22843c00fff   VadS    PAGE_EXECUTE_READWRITE  1       1       Disabled
        Function prologue
55 48 8d 2c 24 48 83 ec 20 48 8b 01 48 8b 49 08 UH.,$H.. H..H.I.
ff d0 48 8d 65 00 5d c3 cc cc cc cc cc cc cc cc ..H.e.].........
cc cc cc cc cc cc cc cc cc cc cc cc cc cc cc cc ................
cc cc cc cc cc cc cc cc cc cc cc cc cc cc cc cc ................
0x22843c00000:  push    rbp
0x22843c00001:  lea     rbp, [rsp]
0x22843c00005:  sub     rsp, 0x20
0x22843c00009:  mov     rax, qword ptr [rcx]
0x22843c0000c:  mov     rcx, qword ptr [rcx + 8]
0x22843c00010:  call    rax
0x22843c00012:  lea     rsp, [rbp]
0x22843c00016:  pop     rbp
0x22843c00017:  ret
0x22843c00018:  int3
0x22843c00019:  int3
0x22843c0001a:  int3
0x22843c0001b:  int3
0x22843c0001c:  int3
0x22843c0001d:  int3
0x22843c0001e:  int3
0x22843c0001f:  int3
0x22843c00020:  int3
0x22843c00021:  int3
0x22843c00022:  int3
0x22843c00023:  int3
0x22843c00024:  int3
0x22843c00025:  int3
0x22843c00026:  int3
0x22843c00027:  int3
0x22843c00028:  int3
0x22843c00029:  int3
0x22843c0002a:  int3
0x22843c0002b:  int3
0x22843c0002c:  int3
0x22843c0002d:  int3
0x22843c0002e:  int3
0x22843c0002f:  int3
0x22843c00030:  int3
0x22843c00031:  int3
0x22843c00032:  int3
0x22843c00033:  int3
0x22843c00034:  int3
0x22843c00035:  int3
0x22843c00036:  int3
0x22843c00037:  int3
0x22843c00038:  int3
0x22843c00039:  int3
0x22843c0003a:  int3
0x22843c0003b:  int3
0x22843c0003c:  int3
0x22843c0003d:  int3
0x22843c0003e:  int3
0x22843c0003f:  int3
3268    MsMpEng.exe     0x2284d170000   0x2284d26ffff   VadS    PAGE_EXECUTE_READWRITE  256     1       Disabled
        N/A
cc cc cc cc cc cc cc cc cc cc cc cc cc cc cc cc ................
cc cc cc cc cc cc cc cc cc cc cc cc cc cc cc cc ................
cc cc cc cc cc cc cc cc cc cc cc cc cc cc cc cc ................
cc 00 00 00 00 00 00 00 00 00 00 00 00 00 00 00 ................
0x2284d170000:  int3
0x2284d170001:  int3
0x2284d170002:  int3
0x2284d170003:  int3
0x2284d170004:  int3
0x2284d170005:  int3
0x2284d170006:  int3
0x2284d170007:  int3
0x2284d170008:  int3
0x2284d170009:  int3
0x2284d17000a:  int3
0x2284d17000b:  int3
0x2284d17000c:  int3
0x2284d17000d:  int3
0x2284d17000e:  int3
0x2284d17000f:  int3
0x2284d170010:  int3
0x2284d170011:  int3
0x2284d170012:  int3
0x2284d170013:  int3
0x2284d170014:  int3
0x2284d170015:  int3
0x2284d170016:  int3
0x2284d170017:  int3
0x2284d170018:  int3
0x2284d170019:  int3
0x2284d17001a:  int3
0x2284d17001b:  int3
0x2284d17001c:  int3
0x2284d17001d:  int3
0x2284d17001e:  int3
0x2284d17001f:  int3
0x2284d170020:  int3
0x2284d170021:  int3
0x2284d170022:  int3
0x2284d170023:  int3
0x2284d170024:  int3
0x2284d170025:  int3
0x2284d170026:  int3
0x2284d170027:  int3
0x2284d170028:  int3
0x2284d170029:  int3
0x2284d17002a:  int3
0x2284d17002b:  int3
0x2284d17002c:  int3
0x2284d17002d:  int3
0x2284d17002e:  int3
0x2284d17002f:  int3
0x2284d170030:  int3
0x2284d170031:  add     byte ptr [rax], al
0x2284d170033:  add     byte ptr [rax], al
0x2284d170035:  add     byte ptr [rax], al
0x2284d170037:  add     byte ptr [rax], al
0x2284d170039:  add     byte ptr [rax], al
0x2284d17003b:  add     byte ptr [rax], al
0x2284d17003d:  add     byte ptr [rax], al
3268    MsMpEng.exe     0x22852760000   0x2285295ffff   VadS    PAGE_EXECUTE_READWRITE  512     1       Disabled
        N/A
cc cc cc cc cc cc cc cc cc cc cc cc cc cc cc cc ................
cc cc cc cc cc cc cc cc cc cc cc cc cc cc cc cc ................
cc cc cc cc cc cc cc cc cc cc cc cc cc cc cc cc ................
cc 00 00 00 00 00 00 00 00 00 00 00 00 00 00 00 ................
0x22852760000:  int3
0x22852760001:  int3
0x22852760002:  int3
0x22852760003:  int3
0x22852760004:  int3
0x22852760005:  int3
0x22852760006:  int3
0x22852760007:  int3
0x22852760008:  int3
0x22852760009:  int3
0x2285276000a:  int3
0x2285276000b:  int3
0x2285276000c:  int3
0x2285276000d:  int3
0x2285276000e:  int3
0x2285276000f:  int3
0x22852760010:  int3
0x22852760011:  int3
0x22852760012:  int3
0x22852760013:  int3
0x22852760014:  int3
0x22852760015:  int3
0x22852760016:  int3
0x22852760017:  int3
0x22852760018:  int3
0x22852760019:  int3
0x2285276001a:  int3
0x2285276001b:  int3
0x2285276001c:  int3
0x2285276001d:  int3
0x2285276001e:  int3
0x2285276001f:  int3
0x22852760020:  int3
0x22852760021:  int3
0x22852760022:  int3
0x22852760023:  int3
0x22852760024:  int3
0x22852760025:  int3
0x22852760026:  int3
0x22852760027:  int3
0x22852760028:  int3
0x22852760029:  int3
0x2285276002a:  int3
0x2285276002b:  int3
0x2285276002c:  int3
0x2285276002d:  int3
0x2285276002e:  int3
0x2285276002f:  int3
0x22852760030:  int3
0x22852760031:  add     byte ptr [rax], al
0x22852760033:  add     byte ptr [rax], al
0x22852760035:  add     byte ptr [rax], al
0x22852760037:  add     byte ptr [rax], al
0x22852760039:  add     byte ptr [rax], al
0x2285276003b:  add     byte ptr [rax], al
0x2285276003d:  add     byte ptr [rax], al
4512    sihost.exe      0x28038380000   0x28038396fff   VadS    PAGE_EXECUTE_READWRITE  23      1       Disabled
        MZ header
4d 5a 90 00 03 00 00 00 04 00 00 00 ff ff 00 00 MZ..............
b8 00 00 00 00 00 00 00 40 00 00 00 00 00 00 00 ........@.......
00 00 00 00 00 00 00 00 00 00 00 00 00 00 00 00 ................
00 00 00 00 00 00 00 00 00 00 00 00 d0 00 00 00 ................
0x28038380000:  pop     r10
0x28038380002:  nop
0x28038380003:  add     byte ptr [rbx], al
0x28038380005:  add     byte ptr [rax], al
0x28038380007:  add     byte ptr [rax + rax], al
0x2803838000a:  add     byte ptr [rax], al
4664    svchost.exe     0x27e09410000   0x27e09426fff   VadS    PAGE_EXECUTE_READWRITE  23      1       Disabled
        MZ header
4d 5a 90 00 03 00 00 00 04 00 00 00 ff ff 00 00 MZ..............
b8 00 00 00 00 00 00 00 40 00 00 00 00 00 00 00 ........@.......
00 00 00 00 00 00 00 00 00 00 00 00 00 00 00 00 ................
00 00 00 00 00 00 00 00 00 00 00 00 d0 00 00 00 ................
0x27e09410000:  pop     r10
0x27e09410002:  nop
0x27e09410003:  add     byte ptr [rbx], al
0x27e09410005:  add     byte ptr [rax], al
0x27e09410007:  add     byte ptr [rax + rax], al
0x27e0941000a:  add     byte ptr [rax], al
4796    svchost.exe     0x1fe210e0000   0x1fe210f6fff   VadS    PAGE_EXECUTE_READWRITE  23      1       Disabled
        MZ header
4d 5a 90 00 03 00 00 00 04 00 00 00 ff ff 00 00 MZ..............
b8 00 00 00 00 00 00 00 40 00 00 00 00 00 00 00 ........@.......
00 00 00 00 00 00 00 00 00 00 00 00 00 00 00 00 ................
00 00 00 00 00 00 00 00 00 00 00 00 d0 00 00 00 ................
0x1fe210e0000:  pop     r10
0x1fe210e0002:  nop
0x1fe210e0003:  add     byte ptr [rbx], al
0x1fe210e0005:  add     byte ptr [rax], al
0x1fe210e0007:  add     byte ptr [rax + rax], al
0x1fe210e000a:  add     byte ptr [rax], al
4976    taskhostw.exe   0x25b5a190000   0x25b5a1a6fff   VadS    PAGE_EXECUTE_READWRITE  23      1       Disabled
        MZ header
4d 5a 90 00 03 00 00 00 04 00 00 00 ff ff 00 00 MZ..............
b8 00 00 00 00 00 00 00 40 00 00 00 00 00 00 00 ........@.......
00 00 00 00 00 00 00 00 00 00 00 00 00 00 00 00 ................
00 00 00 00 00 00 00 00 00 00 00 00 d0 00 00 00 ................
0x25b5a190000:  pop     r10
0x25b5a190002:  nop
0x25b5a190003:  add     byte ptr [rbx], al
0x25b5a190005:  add     byte ptr [rax], al
0x25b5a190007:  add     byte ptr [rax + rax], al
0x25b5a19000a:  add     byte ptr [rax], al
2568    explorer.exe    0x2790000       0x27a6fff       VadS    PAGE_EXECUTE_READWRITE  23      1       Disabled
        MZ header
4d 5a 90 00 03 00 00 00 04 00 00 00 ff ff 00 00 MZ..............
b8 00 00 00 00 00 00 00 40 00 00 00 00 00 00 00 ........@.......
00 00 00 00 00 00 00 00 00 00 00 00 00 00 00 00 ................
00 00 00 00 00 00 00 00 00 00 00 00 d0 00 00 00 ................
0x2790000:      pop     r10
0x2790002:      nop
0x2790003:      add     byte ptr [rbx], al
0x2790005:      add     byte ptr [rax], al
0x2790007:      add     byte ptr [rax + rax], al
0x279000a:      add     byte ptr [rax], al
5436    svchost.exe     0x2a9c8760000   0x2a9c8776fff   VadS    PAGE_EXECUTE_READWRITE  23      1       Disabled
        MZ header
4d 5a 90 00 03 00 00 00 04 00 00 00 ff ff 00 00 MZ..............
b8 00 00 00 00 00 00 00 40 00 00 00 00 00 00 00 ........@.......
00 00 00 00 00 00 00 00 00 00 00 00 00 00 00 00 ................
00 00 00 00 00 00 00 00 00 00 00 00 d0 00 00 00 ................
0x2a9c8760000:  pop     r10
0x2a9c8760002:  nop
0x2a9c8760003:  add     byte ptr [rbx], al
0x2a9c8760005:  add     byte ptr [rax], al
0x2a9c8760007:  add     byte ptr [rax + rax], al
0x2a9c876000a:  add     byte ptr [rax], al
5756    StartMenuExper  0x18e31020000   0x18e31036fff   VadS    PAGE_EXECUTE_READWRITE  23      1       Disabled
        MZ header
4d 5a 90 00 03 00 00 00 04 00 00 00 ff ff 00 00 MZ..............
b8 00 00 00 00 00 00 00 40 00 00 00 00 00 00 00 ........@.......
00 00 00 00 00 00 00 00 00 00 00 00 00 00 00 00 ................
00 00 00 00 00 00 00 00 00 00 00 00 d0 00 00 00 ................
0x18e31020000:  pop     r10
0x18e31020002:  nop
0x18e31020003:  add     byte ptr [rbx], al
0x18e31020005:  add     byte ptr [rax], al
0x18e31020007:  add     byte ptr [rax + rax], al
0x18e3102000a:  add     byte ptr [rax], al
5912    RuntimeBroker.  0x2ea05350000   0x2ea05366fff   VadS    PAGE_EXECUTE_READWRITE  23      1       Disabled
        MZ header
4d 5a 90 00 03 00 00 00 04 00 00 00 ff ff 00 00 MZ..............
b8 00 00 00 00 00 00 00 40 00 00 00 00 00 00 00 ........@.......
00 00 00 00 00 00 00 00 00 00 00 00 00 00 00 00 ................
00 00 00 00 00 00 00 00 00 00 00 00 d0 00 00 00 ................
0x2ea05350000:  pop     r10
0x2ea05350002:  nop
0x2ea05350003:  add     byte ptr [rbx], al
0x2ea05350005:  add     byte ptr [rax], al
0x2ea05350007:  add     byte ptr [rax + rax], al
0x2ea0535000a:  add     byte ptr [rax], al
6260    svchost.exe     0x2aab7350000   0x2aab7366fff   VadS    PAGE_EXECUTE_READWRITE  23      1       Disabled
        MZ header
4d 5a 90 00 03 00 00 00 04 00 00 00 ff ff 00 00 MZ..............
b8 00 00 00 00 00 00 00 40 00 00 00 00 00 00 00 ........@.......
00 00 00 00 00 00 00 00 00 00 00 00 00 00 00 00 ................
00 00 00 00 00 00 00 00 00 00 00 00 d0 00 00 00 ................
0x2aab7350000:  pop     r10
0x2aab7350002:  nop
0x2aab7350003:  add     byte ptr [rbx], al
0x2aab7350005:  add     byte ptr [rax], al
0x2aab7350007:  add     byte ptr [rax + rax], al
0x2aab735000a:  add     byte ptr [rax], al
6300    SearchApp.exe   0x11177870000   0x11177886fff   VadS    PAGE_EXECUTE_READWRITE  23      1       Disabled
        MZ header
4d 5a 90 00 03 00 00 00 04 00 00 00 ff ff 00 00 MZ..............
b8 00 00 00 00 00 00 00 40 00 00 00 00 00 00 00 ........@.......
00 00 00 00 00 00 00 00 00 00 00 00 00 00 00 00 ................
00 00 00 00 00 00 00 00 00 00 00 00 d0 00 00 00 ................
0x11177870000:  pop     r10
0x11177870002:  nop
0x11177870003:  add     byte ptr [rbx], al
0x11177870005:  add     byte ptr [rax], al
0x11177870007:  add     byte ptr [rax + rax], al
0x1117787000a:  add     byte ptr [rax], al
6300    SearchApp.exe   0x11979430000   0x1197944ffff   VadS    PAGE_EXECUTE_READWRITE  8       1       Disabled
        N/A
48 89 54 24 10 48 89 4c 24 08 4c 89 44 24 18 4c H.T$.H.L$.L.D$.L
89 4c 24 20 48 8b 41 28 48 8b 48 08 48 8b 51 50 .L$ H.A(H.H.H.QP
48 83 e2 f8 48 8b ca 48 b8 60 00 43 79 19 01 00 H...H..H.`.Cy...
00 48 2b c8 48 81 f9 70 0f 00 00 76 09 48 c7 c1 .H+.H..p...v.H..
0x11979430000:  mov     qword ptr [rsp + 0x10], rdx
0x11979430005:  mov     qword ptr [rsp + 8], rcx
0x1197943000a:  mov     qword ptr [rsp + 0x18], r8
0x1197943000f:  mov     qword ptr [rsp + 0x20], r9
0x11979430014:  mov     rax, qword ptr [rcx + 0x28]
0x11979430018:  mov     rcx, qword ptr [rax + 8]
0x1197943001c:  mov     rdx, qword ptr [rcx + 0x50]
0x11979430020:  and     rdx, 0xfffffffffffffff8
0x11979430024:  mov     rcx, rdx
0x11979430027:  movabs  rax, 0x11979430060
0x11979430031:  sub     rcx, rax
0x11979430034:  cmp     rcx, 0xf70
0x1197943003b:  jbe     0x11979430046
6300    SearchApp.exe   0x1197b2b0000   0x1197b313fff   VadS    PAGE_EXECUTE_READWRITE  1       1       Disabled
        N/A
48 b8 00 00 00 00 11 01 00 00 48 ff e0 cc cc cc H.........H.....
48 b8 00 b0 13 00 11 01 00 00 48 ff e0 cc cc cc H.........H.....
48 b8 00 40 00 00 11 01 00 00 48 ff e0 cc cc cc H..@......H.....
48 b8 00 50 00 00 11 01 00 00 48 ff e0 cc cc cc H..P......H.....
0x1197b2b0000:  movabs  rax, 0x11100000000
0x1197b2b000a:  jmp     rax
0x1197b2b000d:  int3
0x1197b2b000e:  int3
0x1197b2b000f:  int3
0x1197b2b0010:  movabs  rax, 0x1110013b000
0x1197b2b001a:  jmp     rax
0x1197b2b001d:  int3
0x1197b2b001e:  int3
0x1197b2b001f:  int3
0x1197b2b0020:  movabs  rax, 0x11100004000
0x1197b2b002a:  jmp     rax
0x1197b2b002d:  int3
0x1197b2b002e:  int3
0x1197b2b002f:  int3
0x1197b2b0030:  movabs  rax, 0x11100005000
0x1197b2b003a:  jmp     rax
0x1197b2b003d:  int3
0x1197b2b003e:  int3
0x1197b2b003f:  int3
6456    RuntimeBroker.  0x1db08710000   0x1db08726fff   VadS    PAGE_EXECUTE_READWRITE  23      1       Disabled
        MZ header
4d 5a 90 00 03 00 00 00 04 00 00 00 ff ff 00 00 MZ..............
b8 00 00 00 00 00 00 00 40 00 00 00 00 00 00 00 ........@.......
00 00 00 00 00 00 00 00 00 00 00 00 00 00 00 00 ................
00 00 00 00 00 00 00 00 00 00 00 00 d0 00 00 00 ................
0x1db08710000:  pop     r10
0x1db08710002:  nop
0x1db08710003:  add     byte ptr [rbx], al
0x1db08710005:  add     byte ptr [rax], al
0x1db08710007:  add     byte ptr [rax + rax], al
0x1db0871000a:  add     byte ptr [rax], al
6720    SkypeBackgroun  0x10e48370000   0x10e48386fff   VadS    PAGE_EXECUTE_READWRITE  23      1       Disabled
        MZ header
4d 5a 90 00 03 00 00 00 04 00 00 00 ff ff 00 00 MZ..............
b8 00 00 00 00 00 00 00 40 00 00 00 00 00 00 00 ........@.......
00 00 00 00 00 00 00 00 00 00 00 00 00 00 00 00 ................
00 00 00 00 00 00 00 00 00 00 00 00 d0 00 00 00 ................
0x10e48370000:  pop     r10
0x10e48370002:  nop
0x10e48370003:  add     byte ptr [rbx], al
0x10e48370005:  add     byte ptr [rax], al
0x10e48370007:  add     byte ptr [rax + rax], al
0x10e4837000a:  add     byte ptr [rax], al
6680    RuntimeBroker.  0x1b0aa5b0000   0x1b0aa5c6fff   VadS    PAGE_EXECUTE_READWRITE  23      1       Disabled
        MZ header
4d 5a 90 00 03 00 00 00 04 00 00 00 ff ff 00 00 MZ..............
b8 00 00 00 00 00 00 00 40 00 00 00 00 00 00 00 ........@.......
00 00 00 00 00 00 00 00 00 00 00 00 00 00 00 00 ................
00 00 00 00 00 00 00 00 00 00 00 00 d0 00 00 00 ................
0x1b0aa5b0000:  pop     r10
0x1b0aa5b0002:  nop
0x1b0aa5b0003:  add     byte ptr [rbx], al
0x1b0aa5b0005:  add     byte ptr [rax], al
0x1b0aa5b0007:  add     byte ptr [rax + rax], al
0x1b0aa5b000a:  add     byte ptr [rax], al
4944    SecurityHealth  0x271ba740000   0x271ba756fff   VadS    PAGE_EXECUTE_READWRITE  23      1       Disabled
        MZ header
4d 5a 90 00 03 00 00 00 04 00 00 00 ff ff 00 00 MZ..............
b8 00 00 00 00 00 00 00 40 00 00 00 00 00 00 00 ........@.......
00 00 00 00 00 00 00 00 00 00 00 00 00 00 00 00 ................
00 00 00 00 00 00 00 00 00 00 00 00 d0 00 00 00 ................
0x271ba740000:  pop     r10
0x271ba740002:  nop
0x271ba740003:  add     byte ptr [rbx], al
0x271ba740005:  add     byte ptr [rax], al
0x271ba740007:  add     byte ptr [rax + rax], al
0x271ba74000a:  add     byte ptr [rax], al
3908    VBoxTray.exe    0x1edb67e0000   0x1edb67f6fff   VadS    PAGE_EXECUTE_READWRITE  23      1       Disabled
        MZ header
4d 5a 90 00 03 00 00 00 04 00 00 00 ff ff 00 00 MZ..............
b8 00 00 00 00 00 00 00 40 00 00 00 00 00 00 00 ........@.......
00 00 00 00 00 00 00 00 00 00 00 00 00 00 00 00 ................
00 00 00 00 00 00 00 00 00 00 00 00 d0 00 00 00 ................
0x1edb67e0000:  pop     r10
0x1edb67e0002:  nop
0x1edb67e0003:  add     byte ptr [rbx], al
0x1edb67e0005:  add     byte ptr [rax], al
0x1edb67e0007:  add     byte ptr [rax + rax], al
0x1edb67e000a:  add     byte ptr [rax], al
300     msedge.exe      0x1c2cc800000   0x1c2cc816fff   VadS    PAGE_EXECUTE_READWRITE  23      1       Disabled
        MZ header
4d 5a 90 00 03 00 00 00 04 00 00 00 ff ff 00 00 MZ..............
b8 00 00 00 00 00 00 00 40 00 00 00 00 00 00 00 ........@.......
00 00 00 00 00 00 00 00 00 00 00 00 00 00 00 00 ................
00 00 00 00 00 00 00 00 00 00 00 00 d0 00 00 00 ................
0x1c2cc800000:  pop     r10
0x1c2cc800002:  nop
0x1c2cc800003:  add     byte ptr [rbx], al
0x1c2cc800005:  add     byte ptr [rax], al
0x1c2cc800007:  add     byte ptr [rax + rax], al
0x1c2cc80000a:  add     byte ptr [rax], al
6908    OneDrive.exe    0x29528890000   0x2952889ffff   VadS    PAGE_EXECUTE_READWRITE  16      1       Disabled
        N/A
00 00 00 00 00 00 00 00 00 00 00 00 00 00 00 00 ................
00 00 00 00 00 00 00 00 00 00 00 00 00 00 00 00 ................
f0 ff 00 00 00 00 00 00 00 00 00 00 00 00 00 00 ................
00 00 00 00 00 00 00 00 00 00 00 00 00 00 00 00 ................
0x29528890000:  add     byte ptr [rax], al
0x29528890002:  add     byte ptr [rax], al
0x29528890004:  add     byte ptr [rax], al
0x29528890006:  add     byte ptr [rax], al
0x29528890008:  add     byte ptr [rax], al
0x2952889000a:  add     byte ptr [rax], al
0x2952889000c:  add     byte ptr [rax], al
0x2952889000e:  add     byte ptr [rax], al
0x29528890010:  add     byte ptr [rax], al
0x29528890012:  add     byte ptr [rax], al
0x29528890014:  add     byte ptr [rax], al
0x29528890016:  add     byte ptr [rax], al
0x29528890018:  add     byte ptr [rax], al
0x2952889001a:  add     byte ptr [rax], al
0x2952889001c:  add     byte ptr [rax], al
0x2952889001e:  add     byte ptr [rax], al
0x29528890020:  lock inc        dword ptr [rax]
0x29528890023:  add     byte ptr [rax], al
0x29528890025:  add     byte ptr [rax], al
0x29528890027:  add     byte ptr [rax], al
0x29528890029:  add     byte ptr [rax], al
0x2952889002b:  add     byte ptr [rax], al
0x2952889002d:  add     byte ptr [rax], al
0x2952889002f:  add     byte ptr [rax], al
0x29528890031:  add     byte ptr [rax], al
0x29528890033:  add     byte ptr [rax], al
0x29528890035:  add     byte ptr [rax], al
0x29528890037:  add     byte ptr [rax], al
0x29528890039:  add     byte ptr [rax], al
0x2952889003b:  add     byte ptr [rax], al
0x2952889003d:  add     byte ptr [rax], al
6908    OneDrive.exe    0x29528c30000   0x29528c46fff   VadS    PAGE_EXECUTE_READWRITE  23      1       Disabled
        MZ header
4d 5a 90 00 03 00 00 00 04 00 00 00 ff ff 00 00 MZ..............
b8 00 00 00 00 00 00 00 40 00 00 00 00 00 00 00 ........@.......
00 00 00 00 00 00 00 00 00 00 00 00 00 00 00 00 ................
00 00 00 00 00 00 00 00 00 00 00 00 d0 00 00 00 ................
0x29528c30000:  pop     r10
0x29528c30002:  nop
0x29528c30003:  add     byte ptr [rbx], al
0x29528c30005:  add     byte ptr [rax], al
0x29528c30007:  add     byte ptr [rax + rax], al
0x29528c3000a:  add     byte ptr [rax], al
5208    msedge.exe      0x2c163770000   0x2c163786fff   VadS    PAGE_EXECUTE_READWRITE  23      1       Disabled
        MZ header
4d 5a 90 00 03 00 00 00 04 00 00 00 ff ff 00 00 MZ..............
b8 00 00 00 00 00 00 00 40 00 00 00 00 00 00 00 ........@.......
00 00 00 00 00 00 00 00 00 00 00 00 00 00 00 00 ................
00 00 00 00 00 00 00 00 00 00 00 00 d0 00 00 00 ................
0x2c163770000:  pop     r10
0x2c163770002:  nop
0x2c163770003:  add     byte ptr [rbx], al
0x2c163770005:  add     byte ptr [rax], al
0x2c163770007:  add     byte ptr [rax + rax], al
0x2c16377000a:  add     byte ptr [rax], al
7208    msedge.exe      0x11912df0000   0x11912e06fff   VadS    PAGE_EXECUTE_READWRITE  23      1       Disabled
        MZ header
4d 5a 90 00 03 00 00 00 04 00 00 00 ff ff 00 00 MZ..............
b8 00 00 00 00 00 00 00 40 00 00 00 00 00 00 00 ........@.......
00 00 00 00 00 00 00 00 00 00 00 00 00 00 00 00 ................
00 00 00 00 00 00 00 00 00 00 00 00 d0 00 00 00 ................
0x11912df0000:  pop     r10
0x11912df0002:  nop
0x11912df0003:  add     byte ptr [rbx], al
0x11912df0005:  add     byte ptr [rax], al
0x11912df0007:  add     byte ptr [rax + rax], al
0x11912df000a:  add     byte ptr [rax], al
7216    msedge.exe      0x16baeea0000   0x16baeeb6fff   VadS    PAGE_EXECUTE_READWRITE  23      1       Disabled
        MZ header
4d 5a 90 00 03 00 00 00 04 00 00 00 ff ff 00 00 MZ..............
b8 00 00 00 00 00 00 00 40 00 00 00 00 00 00 00 ........@.......
00 00 00 00 00 00 00 00 00 00 00 00 00 00 00 00 ................
00 00 00 00 00 00 00 00 00 00 00 00 d0 00 00 00 ................
0x16baeea0000:  pop     r10
0x16baeea0002:  nop
0x16baeea0003:  add     byte ptr [rbx], al
0x16baeea0005:  add     byte ptr [rax], al
0x16baeea0007:  add     byte ptr [rax + rax], al
0x16baeea000a:  add     byte ptr [rax], al
7352    msedge.exe      0x2a8cd820000   0x2a8cd836fff   VadS    PAGE_EXECUTE_READWRITE  23      1       Disabled
        MZ header
4d 5a 90 00 03 00 00 00 04 00 00 00 ff ff 00 00 MZ..............
b8 00 00 00 00 00 00 00 40 00 00 00 00 00 00 00 ........@.......
00 00 00 00 00 00 00 00 00 00 00 00 00 00 00 00 ................
00 00 00 00 00 00 00 00 00 00 00 00 d0 00 00 00 ................
0x2a8cd820000:  pop     r10
0x2a8cd820002:  nop
0x2a8cd820003:  add     byte ptr [rbx], al
0x2a8cd820005:  add     byte ptr [rax], al
0x2a8cd820007:  add     byte ptr [rax + rax], al
0x2a8cd82000a:  add     byte ptr [rax], al
7476    msedge.exe      0x17c8fce0000   0x17c8fcf6fff   VadS    PAGE_EXECUTE_READWRITE  23      1       Disabled
        MZ header
4d 5a 90 00 03 00 00 00 04 00 00 00 ff ff 00 00 MZ..............
b8 00 00 00 00 00 00 00 40 00 00 00 00 00 00 00 ........@.......
00 00 00 00 00 00 00 00 00 00 00 00 00 00 00 00 ................
00 00 00 00 00 00 00 00 00 00 00 00 d0 00 00 00 ................
0x17c8fce0000:  pop     r10
0x17c8fce0002:  nop
0x17c8fce0003:  add     byte ptr [rbx], al
0x17c8fce0005:  add     byte ptr [rax], al
0x17c8fce0007:  add     byte ptr [rax + rax], al
0x17c8fce000a:  add     byte ptr [rax], al
7808    msedge.exe      0x14aeb500000   0x14aeb516fff   VadS    PAGE_EXECUTE_READWRITE  23      1       Disabled
        MZ header
4d 5a 90 00 03 00 00 00 04 00 00 00 ff ff 00 00 MZ..............
b8 00 00 00 00 00 00 00 40 00 00 00 00 00 00 00 ........@.......
00 00 00 00 00 00 00 00 00 00 00 00 00 00 00 00 ................
00 00 00 00 00 00 00 00 00 00 00 00 d0 00 00 00 ................
0x14aeb500000:  pop     r10
0x14aeb500002:  nop
0x14aeb500003:  add     byte ptr [rbx], al
0x14aeb500005:  add     byte ptr [rax], al
0x14aeb500007:  add     byte ptr [rax + rax], al
0x14aeb50000a:  add     byte ptr [rax], al
7836    msedge.exe      0x1ff14840000   0x1ff14856fff   VadS    PAGE_EXECUTE_READWRITE  23      1       Disabled
        MZ header
4d 5a 90 00 03 00 00 00 04 00 00 00 ff ff 00 00 MZ..............
b8 00 00 00 00 00 00 00 40 00 00 00 00 00 00 00 ........@.......
00 00 00 00 00 00 00 00 00 00 00 00 00 00 00 00 ................
00 00 00 00 00 00 00 00 00 00 00 00 d0 00 00 00 ................
0x1ff14840000:  pop     r10
0x1ff14840002:  nop
0x1ff14840003:  add     byte ptr [rbx], al
0x1ff14840005:  add     byte ptr [rax], al
0x1ff14840007:  add     byte ptr [rax + rax], al
0x1ff1484000a:  add     byte ptr [rax], al
4408    SystemSettings  0x2978c770000   0x2978c786fff   VadS    PAGE_EXECUTE_READWRITE  23      1       Disabled
        MZ header
4d 5a 90 00 03 00 00 00 04 00 00 00 ff ff 00 00 MZ..............
b8 00 00 00 00 00 00 00 40 00 00 00 00 00 00 00 ........@.......
00 00 00 00 00 00 00 00 00 00 00 00 00 00 00 00 ................
00 00 00 00 00 00 00 00 00 00 00 00 d0 00 00 00 ................
0x2978c770000:  pop     r10
0x2978c770002:  nop
0x2978c770003:  add     byte ptr [rbx], al
0x2978c770005:  add     byte ptr [rax], al
0x2978c770007:  add     byte ptr [rax + rax], al
0x2978c77000a:  add     byte ptr [rax], al
4456    ApplicationFra  0x1eccaa00000   0x1eccaa16fff   VadS    PAGE_EXECUTE_READWRITE  23      1       Disabled
        MZ header
4d 5a 90 00 03 00 00 00 04 00 00 00 ff ff 00 00 MZ..............
b8 00 00 00 00 00 00 00 40 00 00 00 00 00 00 00 ........@.......
00 00 00 00 00 00 00 00 00 00 00 00 00 00 00 00 ................
00 00 00 00 00 00 00 00 00 00 00 00 d0 00 00 00 ................
0x1eccaa00000:  pop     r10
0x1eccaa00002:  nop
0x1eccaa00003:  add     byte ptr [rbx], al
0x1eccaa00005:  add     byte ptr [rax], al
0x1eccaa00007:  add     byte ptr [rax + rax], al
0x1eccaa0000a:  add     byte ptr [rax], al
8024    UserOOBEBroker  0x29e47720000   0x29e47736fff   VadS    PAGE_EXECUTE_READWRITE  23      1       Disabled
        MZ header
4d 5a 90 00 03 00 00 00 04 00 00 00 ff ff 00 00 MZ..............
b8 00 00 00 00 00 00 00 40 00 00 00 00 00 00 00 ........@.......
00 00 00 00 00 00 00 00 00 00 00 00 00 00 00 00 ................
00 00 00 00 00 00 00 00 00 00 00 00 d0 00 00 00 ................
0x29e47720000:  pop     r10
0x29e47720002:  nop
0x29e47720003:  add     byte ptr [rbx], al
0x29e47720005:  add     byte ptr [rax], al
0x29e47720007:  add     byte ptr [rax + rax], al
0x29e4772000a:  add     byte ptr [rax], al
3196    TextInputHost.  0x25e4e960000   0x25e4e976fff   VadS    PAGE_EXECUTE_READWRITE  23      1       Disabled
        MZ header
4d 5a 90 00 03 00 00 00 04 00 00 00 ff ff 00 00 MZ..............
b8 00 00 00 00 00 00 00 40 00 00 00 00 00 00 00 ........@.......
00 00 00 00 00 00 00 00 00 00 00 00 00 00 00 00 ................
00 00 00 00 00 00 00 00 00 00 00 00 d0 00 00 00 ................
0x25e4e960000:  pop     r10
0x25e4e960002:  nop
0x25e4e960003:  add     byte ptr [rbx], al
0x25e4e960005:  add     byte ptr [rax], al
0x25e4e960007:  add     byte ptr [rax + rax], al
0x25e4e96000a:  add     byte ptr [rax], al
4048    dllhost.exe     0x21c56ff0000   0x21c57006fff   VadS    PAGE_EXECUTE_READWRITE  23      1       Disabled
        MZ header
4d 5a 90 00 03 00 00 00 04 00 00 00 ff ff 00 00 MZ..............
b8 00 00 00 00 00 00 00 40 00 00 00 00 00 00 00 ........@.......
00 00 00 00 00 00 00 00 00 00 00 00 00 00 00 00 ................
00 00 00 00 00 00 00 00 00 00 00 00 d0 00 00 00 ................
0x21c56ff0000:  pop     r10
0x21c56ff0002:  nop
0x21c56ff0003:  add     byte ptr [rbx], al
0x21c56ff0005:  add     byte ptr [rax], al
0x21c56ff0007:  add     byte ptr [rax + rax], al
0x21c56ff000a:  add     byte ptr [rax], al
3404    ShellExperienc  0x26eee000000   0x26eee016fff   VadS    PAGE_EXECUTE_READWRITE  23      1       Disabled
        MZ header
4d 5a 90 00 03 00 00 00 04 00 00 00 ff ff 00 00 MZ..............
b8 00 00 00 00 00 00 00 40 00 00 00 00 00 00 00 ........@.......
00 00 00 00 00 00 00 00 00 00 00 00 00 00 00 00 ................
00 00 00 00 00 00 00 00 00 00 00 00 d0 00 00 00 ................
0x26eee000000:  pop     r10
0x26eee000002:  nop
0x26eee000003:  add     byte ptr [rbx], al
0x26eee000005:  add     byte ptr [rax], al
0x26eee000007:  add     byte ptr [rax + rax], al
0x26eee00000a:  add     byte ptr [rax], al
7668    RuntimeBroker.  0x1706e890000   0x1706e8a6fff   VadS    PAGE_EXECUTE_READWRITE  23      1       Disabled
        MZ header
4d 5a 90 00 03 00 00 00 04 00 00 00 ff ff 00 00 MZ..............
b8 00 00 00 00 00 00 00 40 00 00 00 00 00 00 00 ........@.......
00 00 00 00 00 00 00 00 00 00 00 00 00 00 00 00 ................
00 00 00 00 00 00 00 00 00 00 00 00 d0 00 00 00 ................
0x1706e890000:  pop     r10
0x1706e890002:  nop
0x1706e890003:  add     byte ptr [rbx], al
0x1706e890005:  add     byte ptr [rax], al
0x1706e890007:  add     byte ptr [rax + rax], al
0x1706e89000a:  add     byte ptr [rax], al
5680    ufxu.exe        0x400000        0x416fff        VadS    PAGE_EXECUTE_READWRITE  23      1       Disabled
        MZ header
4d 5a 90 00 03 00 00 00 04 00 00 00 ff ff 00 00 MZ..............
b8 00 00 00 00 00 00 00 40 00 00 00 00 00 00 00 ........@.......
00 00 00 00 00 00 00 00 00 00 00 00 00 00 00 00 ................
00 00 00 00 00 00 00 00 00 00 00 00 d0 00 00 00 ................
0x400000:       pop     r10
0x400002:       nop
0x400003:       add     byte ptr [rbx], al
0x400005:       add     byte ptr [rax], al
0x400007:       add     byte ptr [rax + rax], al
0x40000a:       add     byte ptr [rax], al
5680    ufxu.exe        0x4170000       0x4186fff       VadS    PAGE_EXECUTE_READWRITE  23      1       Disabled
        MZ header
4d 5a 90 00 03 00 00 00 04 00 00 00 ff ff 00 00 MZ..............
b8 00 00 00 00 00 00 00 40 00 00 00 00 00 00 00 ........@.......
00 00 00 00 00 00 00 00 00 00 00 00 00 00 00 00 ................
00 00 00 00 00 00 00 00 00 00 00 00 d0 00 00 00 ................
0x4170000:      pop     r10
0x4170002:      nop
0x4170003:      add     byte ptr [rbx], al
0x4170005:      add     byte ptr [rax], al
0x4170007:      add     byte ptr [rax + rax], al
0x417000a:      add     byte ptr [rax], al
4964    OneDriveStanda  0x24e4e270000   0x24e4e286fff   VadS    PAGE_EXECUTE_READWRITE  23      1       Disabled
        MZ header
4d 5a 90 00 03 00 00 00 04 00 00 00 ff ff 00 00 MZ..............
b8 00 00 00 00 00 00 00 40 00 00 00 00 00 00 00 ........@.......
00 00 00 00 00 00 00 00 00 00 00 00 00 00 00 00 ................
00 00 00 00 00 00 00 00 00 00 00 00 d0 00 00 00 ................
0x24e4e270000:  pop     r10
0x24e4e270002:  nop
0x24e4e270003:  add     byte ptr [rbx], al
0x24e4e270005:  add     byte ptr [rax], al
0x24e4e270007:  add     byte ptr [rax + rax], al
0x24e4e27000a:  add     byte ptr [rax], al
500     OneDriveStanda  0x1a674050000   0x1a674066fff   VadS    PAGE_EXECUTE_READWRITE  23      1       Disabled
        MZ header
4d 5a 90 00 03 00 00 00 04 00 00 00 ff ff 00 00 MZ..............
b8 00 00 00 00 00 00 00 40 00 00 00 00 00 00 00 ........@.......
00 00 00 00 00 00 00 00 00 00 00 00 00 00 00 00 ................
00 00 00 00 00 00 00 00 00 00 00 00 d0 00 00 00 ................
0x1a674050000:  pop     r10
0x1a674050002:  nop
0x1a674050003:  add     byte ptr [rbx], al
0x1a674050005:  add     byte ptr [rax], al
0x1a674050007:  add     byte ptr [rax + rax], al
0x1a67405000a:  add     byte ptr [rax], al
3380    RuntimeBroker.  0x20767570000   0x20767586fff   VadS    PAGE_EXECUTE_READWRITE  23      1       Disabled
        MZ header
4d 5a 90 00 03 00 00 00 04 00 00 00 ff ff 00 00 MZ..............
b8 00 00 00 00 00 00 00 40 00 00 00 00 00 00 00 ........@.......
00 00 00 00 00 00 00 00 00 00 00 00 00 00 00 00 ................
00 00 00 00 00 00 00 00 00 00 00 00 d0 00 00 00 ................
0x20767570000:  pop     r10
0x20767570002:  nop
0x20767570003:  add     byte ptr [rbx], al
0x20767570005:  add     byte ptr [rax], al
0x20767570007:  add     byte ptr [rax + rax], al
0x2076757000a:  add     byte ptr [rax], al
PS C:\Users\ashwi\Desktop\volatility3>